target datalayout = "e-m:e-p270:32:32-p271:32:32-p272:64:64-i64:64-i128:128-f80:128-n8:16:32:64-S128"
target triple = "x86_64-pc-linux-gnu"

%"struct.faiss::InvertedLists.base" = type <{ ptr, i64, i64, i8 }>
%"struct.faiss::ReadOnlyInvertedLists.base" = type { %"struct.faiss::InvertedLists.base" }
%"struct.faiss::StopWordsInvertedLists" = type { %"struct.faiss::ReadOnlyInvertedLists.base", ptr, i64 }

; Function Attrs: mustprogress uwtable
define noundef ptr @_ZNK5faiss22StopWordsInvertedLists7get_idsEm(ptr noundef nonnull align 8 dereferenceable(48) %0, i64 noundef %1) unnamed_addr #2 align 2 {
  %3 = alloca ptr, align 8
  %4 = alloca i64, align 8
  store ptr %0, ptr %3, align 8, !tbaa !61
  store i64 %1, ptr %4, align 8, !tbaa !11
  %5 = load ptr, ptr %3, align 8
  %6 = getelementptr inbounds nuw %"struct.faiss::StopWordsInvertedLists", ptr %5, i32 0, i32 1
  %7 = load ptr, ptr %6, align 8, !tbaa !63
  %8 = load i64, ptr %4, align 8, !tbaa !11
  %9 = load ptr, ptr %7, align 8, !tbaa !17
  %10 = getelementptr inbounds ptr, ptr %9, i64 2
  %11 = load ptr, ptr %10, align 8
  %12 = call noundef i64 %11(ptr noundef nonnull align 8 dereferenceable(25) %7, i64 noundef %8)
  %13 = getelementptr inbounds nuw %"struct.faiss::StopWordsInvertedLists", ptr %5, i32 0, i32 2
  %14 = load i64, ptr %13, align 8, !tbaa !65
  %15 = icmp ult i64 %12, %14
  br i1 %15, label %16, label %24

16:                                               ; preds = %2
  %17 = getelementptr inbounds nuw %"struct.faiss::StopWordsInvertedLists", ptr %5, i32 0, i32 1
  %18 = load ptr, ptr %17, align 8, !tbaa !63
  %19 = load i64, ptr %4, align 8, !tbaa !11
  %20 = load ptr, ptr %18, align 8, !tbaa !17
  %21 = getelementptr inbounds ptr, ptr %20, i64 4
  %22 = load ptr, ptr %21, align 8
  %23 = call noundef ptr %22(ptr noundef nonnull align 8 dereferenceable(25) %18, i64 noundef %19)
  br label %25

24:                                               ; preds = %2
  br label %25

25:                                               ; preds = %24, %16
  %26 = phi ptr [ %23, %16 ], [ null, %24 ]
  ret ptr %26
}